; Function Attrs: mustprogress uwtable
define hidden noundef nonnull align 8 dereferenceable(40) ptr @_ZN3p2t5Sweep13NextFlipPointERNS_5PointES2_RNS_8TriangleES2_(ptr nonnull readnone align 8 captures(none) %0, ptr noundef nonnull readonly align 8 captures(none) dereferenceable(40) %1, ptr noundef nonnull readonly align 8 captures(none) dereferenceable(40) %2, ptr noundef nonnull align 8 dereferenceable(57) %3, ptr noundef nonnull align 8 dereferenceable(40) %4) local_unnamed_addr #2 align 2 personality ptr @__gxx_personality_v0 {
  %6 = load double, ptr %2, align 8
  %7 = load double, ptr %1, align 8
  %8 = fsub double %6, %7
  %9 = getelementptr inbounds nuw i8, ptr %4, i64 8
  %10 = load double, ptr %9, align 8
  %11 = getelementptr inbounds nuw i8, ptr %1, i64 8
  %12 = load double, ptr %11, align 8
  %13 = fsub double %10, %12
  %14 = fmul double %8, %13
  %15 = getelementptr inbounds nuw i8, ptr %2, i64 8
  %16 = load double, ptr %15, align 8
  %17 = fsub double %16, %12
  %18 = load double, ptr %4, align 8
  %19 = fsub double %18, %7
  %20 = fmul double %17, %19
  %21 = fsub double %14, %20
  %22 = fcmp oeq double %21, 0.000000e+00
  %23 = fcmp ogt double %21, 0.000000e+00
  %.12.i = zext i1 %23 to i32
  %24 = select i1 %22, i32 2, i32 %.12.i
  switch i32 %24, label %29 [
    i32 0, label %25
    i32 1, label %27
  ]

25:                                               ; preds = %5
  %26 = tail call noundef ptr @_ZN3p2t8Triangle8PointCCWERKNS_5PointE(ptr noundef nonnull align 8 dereferenceable(57) %3, ptr noundef nonnull align 8 dereferenceable(40) %4)
  br label %34

27:                                               ; preds = %5
  %28 = tail call noundef ptr @_ZN3p2t8Triangle7PointCWERKNS_5PointE(ptr noundef nonnull align 8 dereferenceable(57) %3, ptr noundef nonnull align 8 dereferenceable(40) %4)
  br label %34

29:                                               ; preds = %5
  %30 = tail call ptr @__cxa_allocate_exception(i64 16) #20
  invoke void @_ZNSt13runtime_errorC1EPKc(ptr noundef nonnull align 8 dereferenceable(16) %30, ptr noundef nonnull @.str.4)
          to label %31 unwind label %32

31:                                               ; preds = %29
  tail call void @__cxa_throw(ptr nonnull %30, ptr nonnull @_ZTISt13runtime_error, ptr nonnull @_ZNSt13runtime_errorD1Ev) #21
  unreachable

32:                                               ; preds = %29
  %33 = landingpad { ptr, i32 }
          cleanup
  tail call void @__cxa_free_exception(ptr nonnull %30) #20
  resume { ptr, i32 } %33

34:                                               ; preds = %27, %25
  %.0 = phi ptr [ %26, %25 ], [ %28, %27 ]
  ret ptr %.0
}